; Function Attrs: mustprogress nofree norecurse nosync nounwind willreturn memory(argmem: readwrite) uwtable
define noundef zeroext i1 @_ZN3re212re2_internal5ParseIaEEbPKcmPT_(ptr noundef readonly captures(none) %str, i64 noundef %n, ptr noundef writeonly %dest) local_unnamed_addr #16 {
entry:
  %cmp.not = icmp eq i64 %n, 1
  %cmp1 = icmp ne ptr %dest, null
  %or.cond.not = and i1 %cmp.not, %cmp1
  br i1 %or.cond.not, label %if.end3, label %return

if.end3:                                          ; preds = %entry
  %0 = load i8, ptr %str, align 1
  store i8 %0, ptr %dest, align 1
  br label %return

return:                                           ; preds = %entry, %if.end3
  ret i1 %cmp.not
}